; Function Attrs: mustprogress uwtable
define void @_ZN8TFHandle20updateTfHandlesStateE7QPointF(ptr nocapture noundef nonnull readonly align 8 dereferenceable(81) %0, double %1, double %2) local_unnamed_addr #0 align 2 {
  %4 = getelementptr inbounds i8, ptr %0, i64 56
  %5 = fadd double %1, -1.000000e+01
  %6 = fptrunc double %5 to float
  %7 = load ptr, ptr %4, align 8
  %8 = load ptr, ptr %7, align 8
  %9 = getelementptr inbounds i8, ptr %8, i64 40
  %10 = load ptr, ptr %9, align 8
  %11 = getelementptr inbounds i8, ptr %10, i64 20
  %12 = getelementptr inbounds i8, ptr %10, i64 28
  %13 = load i32, ptr %12, align 4
  %14 = load i32, ptr %11, align 4
  %15 = add i32 %13, 1
  %16 = sub i32 %15, %14
  %17 = sitofp i32 %16 to float
  %18 = fadd float %17, -1.000000e+01
  %19 = fadd float %18, -1.000000e+01
  %20 = tail call noundef float @_Z21absolute2RelativeValfff(float noundef %6, float noundef %19)
  %21 = getelementptr inbounds i8, ptr %0, i64 72
  %22 = load ptr, ptr %21, align 8
  store float %20, ptr %22, align 4
  %23 = fadd double %2, -1.000000e+01
  %24 = fptrunc double %23 to float
  %25 = load ptr, ptr %4, align 8
  %26 = load ptr, ptr %25, align 8
  %27 = getelementptr inbounds i8, ptr %26, i64 40
  %28 = load ptr, ptr %27, align 8
  %29 = getelementptr inbounds i8, ptr %28, i64 32
  %30 = load i32, ptr %29, align 4
  %31 = getelementptr inbounds i8, ptr %28, i64 24
  %32 = load i32, ptr %31, align 4
  %33 = add i32 %30, 1
  %34 = sub i32 %33, %32
  %35 = sitofp i32 %34 to float
  %36 = fadd float %35, -1.000000e+01
  %37 = fadd float %36, -1.000000e+01
  %38 = tail call noundef float @_Z21absolute2RelativeValfff(float noundef %24, float noundef %37)
  %39 = fsub float 1.000000e+00, %38
  %40 = load ptr, ptr %21, align 8
  %41 = getelementptr inbounds i8, ptr %40, i64 4
  store float %39, ptr %41, align 4
  %42 = load ptr, ptr @_ZN8TFHandle3_tfE, align 8
  %43 = getelementptr inbounds i8, ptr %0, i64 64
  %44 = load i32, ptr %43, align 8
  %45 = getelementptr inbounds i8, ptr %42, i64 96
  %46 = sext i32 %44 to i64
  %47 = getelementptr inbounds [3 x i32], ptr %45, i64 0, i64 %46
  %48 = load i32, ptr %47, align 4
  %49 = sext i32 %48 to i64
  %50 = getelementptr inbounds [3 x %class.TfChannel], ptr %42, i64 0, i64 %49
  tail call void @_ZN9TfChannel15updateKeysOrderEv(ptr noundef nonnull align 8 dereferenceable(32) %50)
  ret void
}